target datalayout = "e-m:e-p270:32:32-p271:32:32-p272:64:64-i64:64-i128:128-f80:128-n8:16:32:64-S128"
target triple = "x86_64-pc-linux-gnu"

%struct.strbuf = type { i64, i64, ptr }
%struct.object_id = type { [32 x i8], i32 }

@strbuf_slopbuf = external global [0 x i8], align 1
@the_repository = external global ptr, align 8
@.str.103 = private unnamed_addr constant [1 x i8] zeroinitializer, align 1
@git_gettext_enabled = external global i32, align 4
@__const.for_each_tag_name.ref = private unnamed_addr constant %struct.strbuf { i64 0, i64 0, ptr @strbuf_slopbuf }, align 8
@.str.109 = private unnamed_addr constant [13 x i8] c"refs/tags/%s\00", align 1
@.str.110 = private unnamed_addr constant [20 x i8] c"tag '%s' not found.\00", align 1
@.str.111 = private unnamed_addr constant [11 x i8] c"./strbuf.h\00", align 1
@.str.112 = private unnamed_addr constant [30 x i8] c"strbuf_setlen() beyond buffer\00", align 1

; Function Attrs: inlinehint nounwind uwtable
define internal i32 @const_error() #5 {
  ret i32 -1
}

; Function Attrs: inlinehint nounwind uwtable
define internal ptr @_(ptr noundef %0) #5 {
  %2 = alloca ptr, align 8
  %3 = alloca ptr, align 8
  store ptr %0, ptr %3, align 8, !tbaa !11
  %4 = load ptr, ptr %3, align 8, !tbaa !11
  %5 = load i8, ptr %4, align 1, !tbaa !91
  %6 = icmp ne i8 %5, 0
  br i1 %6, label %8, label %7

7:                                                ; preds = %1
  store ptr @.str.103, ptr %2, align 8
  br label %16

8:                                                ; preds = %1
  %9 = load i32, ptr @git_gettext_enabled, align 4, !tbaa !4
  %10 = icmp ne i32 %9, 0
  br i1 %10, label %13, label %11

11:                                               ; preds = %8
  %12 = load ptr, ptr %3, align 8, !tbaa !11
  store ptr %12, ptr %2, align 8
  br label %16

13:                                               ; preds = %8
  %14 = load ptr, ptr %3, align 8, !tbaa !11
  %15 = call ptr @dcgettext(ptr noundef null, ptr noundef %14, i32 noundef 5) #11
  store ptr %15, ptr %2, align 8
  br label %16

16:                                               ; preds = %13, %11, %7
  %17 = load ptr, ptr %2, align 8
  ret ptr %17
}

; Function Attrs: inlinehint nounwind uwtable
define internal void @strbuf_setlen(ptr noundef %0, i64 noundef %1) #5 {
  %3 = alloca ptr, align 8
  %4 = alloca i64, align 8
  store ptr %0, ptr %3, align 8, !tbaa !108
  store i64 %1, ptr %4, align 8, !tbaa !123
  %5 = load i64, ptr %4, align 8, !tbaa !123
  %6 = load ptr, ptr %3, align 8, !tbaa !108
  %7 = getelementptr inbounds nuw %struct.strbuf, ptr %6, i32 0, i32 0
  %8 = load i64, ptr %7, align 8, !tbaa !124
  %9 = icmp ne i64 %8, 0
  br i1 %9, label %10, label %15

10:                                               ; preds = %2
  %11 = load ptr, ptr %3, align 8, !tbaa !108
  %12 = getelementptr inbounds nuw %struct.strbuf, ptr %11, i32 0, i32 0
  %13 = load i64, ptr %12, align 8, !tbaa !124
  %14 = sub i64 %13, 1
  br label %16

15:                                               ; preds = %2
  br label %16

16:                                               ; preds = %15, %10
  %17 = phi i64 [ %14, %10 ], [ 0, %15 ]
  %18 = icmp ugt i64 %5, %17
  br i1 %18, label %19, label %20

19:                                               ; preds = %16
  call void (ptr, i32, ptr, ...) @BUG_fl(ptr noundef @.str.111, i32 noundef 167, ptr noundef @.str.112) #12
  unreachable

20:                                               ; preds = %16
  %21 = load i64, ptr %4, align 8, !tbaa !123
  %22 = load ptr, ptr %3, align 8, !tbaa !108
  %23 = getelementptr inbounds nuw %struct.strbuf, ptr %22, i32 0, i32 1
  store i64 %21, ptr %23, align 8, !tbaa !110
  %24 = load ptr, ptr %3, align 8, !tbaa !108
  %25 = getelementptr inbounds nuw %struct.strbuf, ptr %24, i32 0, i32 2
  %26 = load ptr, ptr %25, align 8, !tbaa !59
  %27 = icmp ne ptr %26, @strbuf_slopbuf
  br i1 %27, label %28, label %34

28:                                               ; preds = %20
  %29 = load ptr, ptr %3, align 8, !tbaa !108
  %30 = getelementptr inbounds nuw %struct.strbuf, ptr %29, i32 0, i32 2
  %31 = load ptr, ptr %30, align 8, !tbaa !59
  %32 = load i64, ptr %4, align 8, !tbaa !123
  %33 = getelementptr inbounds nuw i8, ptr %31, i64 %32
  store i8 0, ptr %33, align 1, !tbaa !91
  br label %35

34:                                               ; preds = %20
  br label %35

35:                                               ; preds = %34, %28
  ret void
}

; Function Attrs: nounwind uwtable
define internal i32 @for_each_tag_name(ptr noundef %0, ptr noundef %1, ptr noundef %2) #0 {
  %4 = alloca ptr, align 8
  %5 = alloca ptr, align 8
  %6 = alloca ptr, align 8
  %7 = alloca ptr, align 8
  %8 = alloca %struct.strbuf, align 8
  %9 = alloca i32, align 4
  %10 = alloca %struct.object_id, align 4
  store ptr %0, ptr %4, align 8, !tbaa !8
  store ptr %1, ptr %5, align 8, !tbaa !88
  store ptr %2, ptr %6, align 8, !tbaa !88
  call void @llvm.lifetime.start.p0(i64 8, ptr %7) #11
  call void @llvm.lifetime.start.p0(i64 24, ptr %8) #11
  call void @llvm.memcpy.p0.p0.i64(ptr align 8 %8, ptr align 8 @__const.for_each_tag_name.ref, i64 24, i1 false)
  call void @llvm.lifetime.start.p0(i64 4, ptr %9) #11
  store i32 0, ptr %9, align 4, !tbaa !4
  call void @llvm.lifetime.start.p0(i64 36, ptr %10) #11
  %11 = load ptr, ptr %4, align 8, !tbaa !8
  store ptr %11, ptr %7, align 8, !tbaa !8
  br label %12

12:                                               ; preds = %42, %3
  %13 = load ptr, ptr %7, align 8, !tbaa !8
  %14 = load ptr, ptr %13, align 8, !tbaa !11
  %15 = icmp ne ptr %14, null
  br i1 %15, label %16, label %45

16:                                               ; preds = %12
  call void @strbuf_setlen(ptr noundef %8, i64 noundef 0)
  %17 = load ptr, ptr %7, align 8, !tbaa !8
  %18 = load ptr, ptr %17, align 8, !tbaa !11
  call void (ptr, ptr, ...) @strbuf_addf(ptr noundef %8, ptr noundef @.str.109, ptr noundef %18)
  %19 = load ptr, ptr @the_repository, align 8, !tbaa !13
  %20 = call ptr @get_main_ref_store(ptr noundef %19)
  %21 = getelementptr inbounds nuw %struct.strbuf, ptr %8, i32 0, i32 2
  %22 = load ptr, ptr %21, align 8, !tbaa !59
  %23 = call i32 @refs_read_ref(ptr noundef %20, ptr noundef %22, ptr noundef %10)
  %24 = icmp ne i32 %23, 0
  br i1 %24, label %25, label %31

25:                                               ; preds = %16
  %26 = call ptr @_(ptr noundef @.str.110)
  %27 = load ptr, ptr %7, align 8, !tbaa !8
  %28 = load ptr, ptr %27, align 8, !tbaa !11
  %29 = call i32 (ptr, ...) @error(ptr noundef %26, ptr noundef %28)
  %30 = call i32 @const_error()
  store i32 1, ptr %9, align 4, !tbaa !4
  br label %42

31:                                               ; preds = %16
  %32 = load ptr, ptr %5, align 8, !tbaa !88
  %33 = load ptr, ptr %7, align 8, !tbaa !8
  %34 = load ptr, ptr %33, align 8, !tbaa !11
  %35 = getelementptr inbounds nuw %struct.strbuf, ptr %8, i32 0, i32 2
  %36 = load ptr, ptr %35, align 8, !tbaa !59
  %37 = load ptr, ptr %6, align 8, !tbaa !88
  %38 = call i32 %32(ptr noundef %34, ptr noundef %36, ptr noundef %10, ptr noundef %37)
  %39 = icmp ne i32 %38, 0
  br i1 %39, label %40, label %41

40:                                               ; preds = %31
  store i32 1, ptr %9, align 4, !tbaa !4
  br label %41

41:                                               ; preds = %40, %31
  br label %42

42:                                               ; preds = %41, %25
  %43 = load ptr, ptr %7, align 8, !tbaa !8
  %44 = getelementptr inbounds nuw ptr, ptr %43, i32 1
  store ptr %44, ptr %7, align 8, !tbaa !8
  br label %12, !llvm.loop !104

45:                                               ; preds = %12
  call void @strbuf_release(ptr noundef %8)
  %46 = load i32, ptr %9, align 4, !tbaa !4
  call void @llvm.lifetime.end.p0(i64 36, ptr %10) #11
  call void @llvm.lifetime.end.p0(i64 4, ptr %9) #11
  call void @llvm.lifetime.end.p0(i64 24, ptr %8) #11
  call void @llvm.lifetime.end.p0(i64 8, ptr %7) #11
  ret i32 %46
}