; Function Attrs: nounwind uwtable
define internal fastcc range(i32 0, 2) i32 @for_each_tag_name(ptr noundef readonly captures(none) %0, ptr noundef readonly captures(none) %1, ptr noundef nonnull %2) unnamed_addr #0 {
  %4 = alloca %struct.strbuf, align 8
  %5 = alloca %struct.object_id, align 4
  call void @llvm.lifetime.start.p0(i64 24, ptr nonnull %4) #15
  call void @llvm.memcpy.p0.p0.i64(ptr noundef nonnull align 8 dereferenceable(24) %4, ptr noundef nonnull align 8 dereferenceable(24) @__const.do_sign.compat_buf, i64 24, i1 false)
  call void @llvm.lifetime.start.p0(i64 36, ptr nonnull %5) #15
  %6 = load ptr, ptr %0, align 8, !tbaa !4
  %.not11 = icmp eq ptr %6, null
  br i1 %.not11, label %._crit_edge, label %.lr.ph

.lr.ph:                                           ; preds = %3
  %7 = getelementptr inbounds nuw i8, ptr %4, i64 8
  %8 = getelementptr inbounds nuw i8, ptr %4, i64 16
  br label %9

9:                                                ; preds = %.lr.ph, %28
  %10 = phi ptr [ %6, %.lr.ph ], [ %30, %28 ]
  %.013 = phi i32 [ 0, %.lr.ph ], [ %.1, %28 ]
  %.0812 = phi ptr [ %0, %.lr.ph ], [ %29, %28 ]
  store i64 0, ptr %7, align 8, !tbaa !81
  %11 = load ptr, ptr %8, align 8, !tbaa !57
  %.not9.i = icmp eq ptr %11, @strbuf_slopbuf
  br i1 %.not9.i, label %strbuf_setlen.exit, label %12

12:                                               ; preds = %9
  store i8 0, ptr %11, align 1, !tbaa !87
  %.pre = load ptr, ptr %.0812, align 8, !tbaa !4
  br label %strbuf_setlen.exit

strbuf_setlen.exit:                               ; preds = %9, %12
  %13 = phi ptr [ %10, %9 ], [ %.pre, %12 ]
  call void (ptr, ptr, ...) @strbuf_addf(ptr noundef nonnull %4, ptr noundef nonnull @.str.109, ptr noundef %13) #15
  %14 = load ptr, ptr @the_repository, align 8, !tbaa !22
  %15 = call ptr @get_main_ref_store(ptr noundef %14) #15
  %16 = load ptr, ptr %8, align 8, !tbaa !57
  %17 = call i32 @refs_read_ref(ptr noundef %15, ptr noundef %16, ptr noundef nonnull %5) #15
  %.not9 = icmp eq i32 %17, 0
  br i1 %.not9, label %24, label %18

18:                                               ; preds = %strbuf_setlen.exit
  %19 = load i32, ptr @git_gettext_enabled, align 4, !tbaa !9
  %.not4.i = icmp eq i32 %19, 0
  br i1 %.not4.i, label %_.exit, label %20

20:                                               ; preds = %18
  %21 = call ptr @dcgettext(ptr noundef null, ptr noundef nonnull @.str.110, i32 noundef 5) #15
  br label %_.exit

_.exit:                                           ; preds = %18, %20
  %.0.i = phi ptr [ %21, %20 ], [ @.str.110, %18 ]
  %22 = load ptr, ptr %.0812, align 8, !tbaa !4
  %23 = call i32 (ptr, ...) @error(ptr noundef %.0.i, ptr noundef %22) #15
  br label %28

24:                                               ; preds = %strbuf_setlen.exit
  %25 = load ptr, ptr %.0812, align 8, !tbaa !4
  %26 = load ptr, ptr %8, align 8, !tbaa !57
  %27 = call i32 %1(ptr noundef %25, ptr noundef %26, ptr noundef nonnull %5, ptr noundef nonnull %2) #15, !callees !93
  %.not10 = icmp eq i32 %27, 0
  %spec.select = select i1 %.not10, i32 %.013, i32 1
  br label %28

28:                                               ; preds = %24, %_.exit
  %.1 = phi i32 [ 1, %_.exit ], [ %spec.select, %24 ]
  %29 = getelementptr inbounds nuw i8, ptr %.0812, i64 8
  %30 = load ptr, ptr %29, align 8, !tbaa !4
  %.not = icmp eq ptr %30, null
  br i1 %.not, label %._crit_edge, label %9, !llvm.loop !94

._crit_edge:                                      ; preds = %28, %3
  %.0.lcssa = phi i32 [ 0, %3 ], [ %.1, %28 ]
  call void @strbuf_release(ptr noundef nonnull %4) #15
  call void @llvm.lifetime.end.p0(i64 36, ptr nonnull %5) #15
  call void @llvm.lifetime.end.p0(i64 24, ptr nonnull %4) #15
  ret i32 %.0.lcssa
}